#include <math.h>
#include <stdio.h>
#include <stdlib.h>
#include <string.h>
#include <iostream>
using namespace std;

int  main()
{
    int k,i;
	cin>>k;
	int a[13]={0,13,31+13,31+28+13,28+2*31+13,28+30+2*31+13,28+30+3*31+13,28+2*30+3*31+13,28+30*2+4*31+13,28+2*30+5*31+13,28+3*30+5*31+13,28+3*30+6*31+13,28+4*30+6*31+13};
     for(i=1;i<=12;i++)
	 {
		 if((a[i]%7+k-1)%7==5)
			 cout<<i<<endl;
	 }
	 return 0;
}